target datalayout = "e-m:e-p270:32:32-p271:32:32-p272:64:64-i64:64-i128:128-f80:128-n8:16:32:64-S128"
target triple = "x86_64-pc-linux-gnu"

%union.pthread_mutex_t = type { %struct.__pthread_mutex_s }
%struct.__pthread_mutex_s = type { i32, i32, i32, i32, i32, i16, i16, %struct.__pthread_internal_list }
%struct.__pthread_internal_list = type { ptr, ptr }
%struct.slurmdb_federation_rec_t = type { ptr, i32, ptr }
%struct.slurmdb_cluster_rec = type { ptr, i16, i64, %struct.sockaddr_storage, ptr, i32, i16, ptr, i16, %struct.slurmdb_cluster_fed_t, i32, %union.pthread_mutex_t, ptr, ptr, ptr, i16, ptr, ptr }
%struct.sockaddr_storage = type { i16, [118 x i8], i64 }
%struct.slurmdb_cluster_fed_t = type { ptr, i32, ptr, ptr, ptr, i32, i8, i8 }

@fed_mgr_fed_rec = dso_local global ptr null, align 8
@.str.76 = private unnamed_addr constant [37 x i8] c"%s: sibling %s up but not synced yet\00", align 1
@__func__.fed_mgr_sibs_synced = private unnamed_addr constant [20 x i8] c"fed_mgr_sibs_synced\00", align 1

; Function Attrs: nounwind uwtable
define dso_local zeroext i1 @fed_mgr_sibs_synced() #0 {
  %1 = alloca i1, align 1
  %2 = alloca ptr, align 8
  %3 = alloca i32, align 4
  %4 = alloca i32, align 4
  call void @llvm.lifetime.start.p0(i64 8, ptr %2) #9
  call void @llvm.lifetime.start.p0(i64 4, ptr %3) #9
  store i32 1, ptr %3, align 4
  %5 = load ptr, ptr @fed_mgr_fed_rec, align 8
  %6 = icmp ne ptr %5, null
  br i1 %6, label %8, label %7

7:                                                ; preds = %0
  store i1 true, ptr %1, align 1
  store i32 1, ptr %4, align 4
  br label %29

8:                                                ; preds = %0
  %9 = load ptr, ptr @fed_mgr_fed_rec, align 8
  %10 = getelementptr inbounds nuw %struct.slurmdb_federation_rec_t, ptr %9, i32 0, i32 2
  %11 = load ptr, ptr %10, align 8
  %12 = call ptr @list_find_first(ptr noundef %11, ptr noundef @_list_find_not_synced_sib, ptr noundef %3)
  store ptr %12, ptr %2, align 8
  %13 = icmp ne ptr %12, null
  br i1 %13, label %14, label %28

14:                                               ; preds = %8
  br label %15

15:                                               ; preds = %14
  br label %16

16:                                               ; preds = %15
  %17 = call i32 @get_log_level()
  %18 = icmp sge i32 %17, 5
  br i1 %18, label %19, label %23

19:                                               ; preds = %16
  %20 = load ptr, ptr %2, align 8
  %21 = getelementptr inbounds nuw %struct.slurmdb_cluster_rec, ptr %20, i32 0, i32 12
  %22 = load ptr, ptr %21, align 8
  call void (i32, ptr, ...) @log_var(i32 noundef 5, ptr noundef @.str.76, ptr noundef @__func__.fed_mgr_sibs_synced, ptr noundef %22)
  br label %23

23:                                               ; preds = %19, %16
  br label %24

24:                                               ; preds = %23
  br label %25

25:                                               ; preds = %24
  br label %26

26:                                               ; preds = %25
  br label %27

27:                                               ; preds = %26
  store i1 false, ptr %1, align 1
  store i32 1, ptr %4, align 4
  br label %29

28:                                               ; preds = %8
  store i1 true, ptr %1, align 1
  store i32 1, ptr %4, align 4
  br label %29

29:                                               ; preds = %28, %27, %7
  call void @llvm.lifetime.end.p0(i64 4, ptr %3) #9
  call void @llvm.lifetime.end.p0(i64 8, ptr %2) #9
  %30 = load i1, ptr %1, align 1
  ret i1 %30
}