; Function Attrs: nounwind uwtable
define dso_local noundef zeroext i1 @fed_mgr_sibs_synced() local_unnamed_addr #0 {
  %1 = alloca i32, align 4
  call void @llvm.lifetime.start.p0(i64 4, ptr nonnull %1) #16
  store i32 1, ptr %1, align 4
  %2 = load ptr, ptr @fed_mgr_fed_rec, align 8
  %.not = icmp eq ptr %2, null
  br i1 %.not, label %13, label %3

3:                                                ; preds = %0
  %4 = getelementptr inbounds nuw i8, ptr %2, i64 16
  %5 = load ptr, ptr %4, align 8
  %6 = call ptr @list_find_first(ptr noundef %5, ptr noundef nonnull @_list_find_not_synced_sib, ptr noundef nonnull %1) #16
  %.not4 = icmp eq ptr %6, null
  br i1 %.not4, label %13, label %7

7:                                                ; preds = %3
  %8 = call i32 @get_log_level() #16
  %9 = icmp sgt i32 %8, 4
  br i1 %9, label %10, label %13

10:                                               ; preds = %7
  %11 = getelementptr inbounds nuw i8, ptr %6, i64 280
  %12 = load ptr, ptr %11, align 8
  call void (i32, ptr, ...) @log_var(i32 noundef 5, ptr noundef nonnull @.str.76, ptr noundef nonnull @__func__.fed_mgr_sibs_synced, ptr noundef %12) #16
  br label %13

13:                                               ; preds = %3, %7, %10, %0
  %.0 = phi i1 [ true, %0 ], [ false, %10 ], [ false, %7 ], [ true, %3 ]
  call void @llvm.lifetime.end.p0(i64 4, ptr nonnull %1) #16
  ret i1 %.0
}